; Function Attrs: mustprogress uwtable
define hidden void @_ZN13rewriter_core15del_cache_stackEv(ptr nocapture noundef nonnull align 8 dereferenceable(144) %this) local_unnamed_addr #3 align 2 {
entry:
  %m_cache_stack = getelementptr inbounds i8, ptr %this, i64 24
  %0 = load ptr, ptr %m_cache_stack, align 8
  %cmp.i.i = icmp eq ptr %0, null
  br i1 %cmp.i.i, label %_ZN6vectorIP9act_cacheLb0EjE8finalizeEv.exit, label %_ZN6vectorIP9act_cacheLb0EjE3endEv.exit

_ZN6vectorIP9act_cacheLb0EjE3endEv.exit:          ; preds = %entry
  %arrayidx.i.i = getelementptr inbounds i8, ptr %0, i64 -4
  %1 = load i32, ptr %arrayidx.i.i, align 4
  %2 = zext i32 %1 to i64
  %add.ptr.i = getelementptr inbounds ptr, ptr %0, i64 %2
  %cmp.not3.i = icmp eq i32 %1, 0
  br i1 %cmp.not3.i, label %if.then.i.i, label %for.body.i

for.body.i:                                       ; preds = %_ZN6vectorIP9act_cacheLb0EjE3endEv.exit, %_ZN11delete_procI9act_cacheEclEPS0_.exit.i
  %__first.addr.04.i = phi ptr [ %incdec.ptr.i, %_ZN11delete_procI9act_cacheEclEPS0_.exit.i ], [ %0, %_ZN6vectorIP9act_cacheLb0EjE3endEv.exit ]
  %3 = load ptr, ptr %__first.addr.04.i, align 8
  %tobool.not.i.i = icmp eq ptr %3, null
  br i1 %tobool.not.i.i, label %_ZN11delete_procI9act_cacheEclEPS0_.exit.i, label %_Z7deallocI9act_cacheEvPT_.exit.i.i

_Z7deallocI9act_cacheEvPT_.exit.i.i:              ; preds = %for.body.i
  tail call void @_ZN9act_cacheD1Ev(ptr noundef nonnull align 8 dereferenceable(92) %3) #14
  tail call void @_ZN6memory10deallocateEPv(ptr noundef nonnull %3)
  br label %_ZN11delete_procI9act_cacheEclEPS0_.exit.i

_ZN11delete_procI9act_cacheEclEPS0_.exit.i:       ; preds = %_Z7deallocI9act_cacheEvPT_.exit.i.i, %for.body.i
  %incdec.ptr.i = getelementptr inbounds i8, ptr %__first.addr.04.i, i64 8
  %cmp.not.i = icmp eq ptr %incdec.ptr.i, %add.ptr.i
  br i1 %cmp.not.i, label %_ZSt8for_eachIPP9act_cache11delete_procIS0_EET0_T_S6_S5_.exit, label %for.body.i, !llvm.loop !4

_ZSt8for_eachIPP9act_cache11delete_procIS0_EET0_T_S6_S5_.exit: ; preds = %_ZN11delete_procI9act_cacheEclEPS0_.exit.i
  %.pre = load ptr, ptr %m_cache_stack, align 8
  %tobool.not.i.i1 = icmp eq ptr %.pre, null
  br i1 %tobool.not.i.i1, label %_ZN6vectorIP9act_cacheLb0EjE8finalizeEv.exit, label %if.then.i.i

if.then.i.i:                                      ; preds = %_ZN6vectorIP9act_cacheLb0EjE3endEv.exit, %_ZSt8for_eachIPP9act_cache11delete_procIS0_EET0_T_S6_S5_.exit
  %4 = phi ptr [ %.pre, %_ZSt8for_eachIPP9act_cache11delete_procIS0_EET0_T_S6_S5_.exit ], [ %0, %_ZN6vectorIP9act_cacheLb0EjE3endEv.exit ]
  %add.ptr.i.i.i = getelementptr inbounds i8, ptr %4, i64 -8
  tail call void @_ZN6memory10deallocateEPv(ptr noundef nonnull %add.ptr.i.i.i)
  br label %_ZN6vectorIP9act_cacheLb0EjE8finalizeEv.exit

_ZN6vectorIP9act_cacheLb0EjE8finalizeEv.exit:     ; preds = %entry, %_ZSt8for_eachIPP9act_cache11delete_procIS0_EET0_T_S6_S5_.exit, %if.then.i.i
  %m_proof_gen = getelementptr inbounds i8, ptr %this, i64 16
  tail call void @llvm.memset.p0.i64(ptr noundef nonnull align 8 dereferenceable(16) %m_cache_stack, i8 0, i64 16, i1 false)
  %5 = load i8, ptr %m_proof_gen, align 8
  %6 = and i8 %5, 1
  %tobool.not = icmp eq i8 %6, 0
  br i1 %tobool.not, label %if.end, label %if.then

if.then:                                          ; preds = %_ZN6vectorIP9act_cacheLb0EjE8finalizeEv.exit
  %m_cache_pr_stack = getelementptr inbounds i8, ptr %this, i64 64
  %7 = load ptr, ptr %m_cache_pr_stack, align 8
  %cmp.i.i2 = icmp eq ptr %7, null
  br i1 %cmp.i.i2, label %_ZN6vectorIP9act_cacheLb0EjE8finalizeEv.exit20, label %_ZN6vectorIP9act_cacheLb0EjE3endEv.exit7

_ZN6vectorIP9act_cacheLb0EjE3endEv.exit7:         ; preds = %if.then
  %arrayidx.i.i4 = getelementptr inbounds i8, ptr %7, i64 -4
  %8 = load i32, ptr %arrayidx.i.i4, align 4
  %9 = zext i32 %8 to i64
  %add.ptr.i6 = getelementptr inbounds ptr, ptr %7, i64 %9
  %cmp.not3.i8 = icmp eq i32 %8, 0
  br i1 %cmp.not3.i8, label %if.then.i.i18, label %for.body.i9

for.body.i9:                                      ; preds = %_ZN6vectorIP9act_cacheLb0EjE3endEv.exit7, %_ZN11delete_procI9act_cacheEclEPS0_.exit.i13
  %__first.addr.04.i10 = phi ptr [ %incdec.ptr.i14, %_ZN11delete_procI9act_cacheEclEPS0_.exit.i13 ], [ %7, %_ZN6vectorIP9act_cacheLb0EjE3endEv.exit7 ]
  %10 = load ptr, ptr %__first.addr.04.i10, align 8
  %tobool.not.i.i11 = icmp eq ptr %10, null
  br i1 %tobool.not.i.i11, label %_ZN11delete_procI9act_cacheEclEPS0_.exit.i13, label %_Z7deallocI9act_cacheEvPT_.exit.i.i12

_Z7deallocI9act_cacheEvPT_.exit.i.i12:            ; preds = %for.body.i9
  tail call void @_ZN9act_cacheD1Ev(ptr noundef nonnull align 8 dereferenceable(92) %10) #14
  tail call void @_ZN6memory10deallocateEPv(ptr noundef nonnull %10)
  br label %_ZN11delete_procI9act_cacheEclEPS0_.exit.i13

_ZN11delete_procI9act_cacheEclEPS0_.exit.i13:     ; preds = %_Z7deallocI9act_cacheEvPT_.exit.i.i12, %for.body.i9
  %incdec.ptr.i14 = getelementptr inbounds i8, ptr %__first.addr.04.i10, i64 8
  %cmp.not.i15 = icmp eq ptr %incdec.ptr.i14, %add.ptr.i6
  br i1 %cmp.not.i15, label %_ZSt8for_eachIPP9act_cache11delete_procIS0_EET0_T_S6_S5_.exit16, label %for.body.i9, !llvm.loop !4

_ZSt8for_eachIPP9act_cache11delete_procIS0_EET0_T_S6_S5_.exit16: ; preds = %_ZN11delete_procI9act_cacheEclEPS0_.exit.i13
  %.pre21 = load ptr, ptr %m_cache_pr_stack, align 8
  %tobool.not.i.i17 = icmp eq ptr %.pre21, null
  br i1 %tobool.not.i.i17, label %_ZN6vectorIP9act_cacheLb0EjE8finalizeEv.exit20, label %if.then.i.i18

if.then.i.i18:                                    ; preds = %_ZN6vectorIP9act_cacheLb0EjE3endEv.exit7, %_ZSt8for_eachIPP9act_cache11delete_procIS0_EET0_T_S6_S5_.exit16
  %11 = phi ptr [ %.pre21, %_ZSt8for_eachIPP9act_cache11delete_procIS0_EET0_T_S6_S5_.exit16 ], [ %7, %_ZN6vectorIP9act_cacheLb0EjE3endEv.exit7 ]
  %add.ptr.i.i.i19 = getelementptr inbounds i8, ptr %11, i64 -8
  tail call void @_ZN6memory10deallocateEPv(ptr noundef nonnull %add.ptr.i.i.i19)
  br label %_ZN6vectorIP9act_cacheLb0EjE8finalizeEv.exit20

_ZN6vectorIP9act_cacheLb0EjE8finalizeEv.exit20:   ; preds = %if.then, %_ZSt8for_eachIPP9act_cache11delete_procIS0_EET0_T_S6_S5_.exit16, %if.then.i.i18
  tail call void @llvm.memset.p0.i64(ptr noundef nonnull align 8 dereferenceable(16) %m_cache_pr_stack, i8 0, i64 16, i1 false)
  br label %if.end

if.end:                                           ; preds = %_ZN6vectorIP9act_cacheLb0EjE8finalizeEv.exit20, %_ZN6vectorIP9act_cacheLb0EjE8finalizeEv.exit
  ret void
}